; ModuleID = '57/1822.c'
source_filename = "57/1822.c"
target datalayout = "e-m:e-p270:32:32-p271:32:32-p272:64:64-i64:64-f80:128-n8:16:32:64-S128"
target triple = "x86_64-pc-linux-gnu"

@.str = private unnamed_addr constant [3 x i8] c"%d\00", align 1
@.str.1 = private unnamed_addr constant [3 x i8] c"%s\00", align 1
@.str.2 = private unnamed_addr constant [4 x i8] c"%s\0A\00", align 1

; Function Attrs: noinline nounwind uwtable
define dso_local i32 @main() #0 {
  %1 = alloca i32, align 4
  %2 = alloca i32, align 4
  %3 = alloca i32, align 4
  %4 = alloca i32, align 4
  %5 = alloca [32 x i8], align 16
  %6 = alloca i8*, align 8
  store i32 0, i32* %1, align 4
  %7 = call i32 (i8*, ...) @__isoc99_scanf(i8* getelementptr inbounds ([3 x i8], [3 x i8]* @.str, i64 0, i64 0), i32* %3)
  store i32 0, i32* %2, align 4
  br label %8

8:                                                ; preds = %40, %0
  %9 = load i32, i32* %2, align 4
  %10 = load i32, i32* %3, align 4
  %11 = icmp slt i32 %9, %10
  br i1 %11, label %12, label %43

12:                                               ; preds = %8
  %13 = getelementptr inbounds [32 x i8], [32 x i8]* %5, i64 0, i64 0
  %14 = call i32 (i8*, ...) @__isoc99_scanf(i8* getelementptr inbounds ([3 x i8], [3 x i8]* @.str.1, i64 0, i64 0), i8* %13)
  %15 = getelementptr inbounds [32 x i8], [32 x i8]* %5, i64 0, i64 0
  store i8* %15, i8** %6, align 8
  br label %16

16:                                               ; preds = %21, %12
  %17 = load i8*, i8** %6, align 8
  %18 = load i8, i8* %17, align 1
  %19 = icmp ne i8 %18, 0
  br i1 %19, label %20, label %24

20:                                               ; preds = %16
  br label %21

21:                                               ; preds = %20
  %22 = load i8*, i8** %6, align 8
  %23 = getelementptr inbounds i8, i8* %22, i32 1
  store i8* %23, i8** %6, align 8
  br label %16

24:                                               ; preds = %16
  %25 = load i8*, i8** %6, align 8
  %26 = getelementptr inbounds i8, i8* %25, i64 -1
  %27 = load i8, i8* %26, align 1
  %28 = sext i8 %27 to i32
  switch i32 %28, label %32 [
    i32 114, label %29
    i32 121, label %30
    i32 103, label %31
  ]

29:                                               ; preds = %24
  store i32 2, i32* %4, align 4
  br label %32

30:                                               ; preds = %24
  store i32 2, i32* %4, align 4
  br label %32

31:                                               ; preds = %24
  store i32 3, i32* %4, align 4
  br label %32

32:                                               ; preds = %24, %31, %30, %29
  %33 = load i8*, i8** %6, align 8
  %34 = load i32, i32* %4, align 4
  %35 = sext i32 %34 to i64
  %36 = sub i64 0, %35
  %37 = getelementptr inbounds i8, i8* %33, i64 %36
  store i8 0, i8* %37, align 1
  %38 = getelementptr inbounds [32 x i8], [32 x i8]* %5, i64 0, i64 0
  %39 = call i32 (i8*, ...) @printf(i8* getelementptr inbounds ([4 x i8], [4 x i8]* @.str.2, i64 0, i64 0), i8* %38)
  br label %40

40:                                               ; preds = %32
  %41 = load i32, i32* %2, align 4
  %42 = add nsw i32 %41, 1
  store i32 %42, i32* %2, align 4
  br label %8

43:                                               ; preds = %8
  ret i32 0
}

declare dso_local i32 @__isoc99_scanf(i8*, ...) #1

declare dso_local i32 @printf(i8*, ...) #1


!llvm.module.flags = !{!0}
!llvm.ident = !{!1}

!0 = !{i32 1, !"wchar_size", i32 4}
!1 = !{!"clang version 10.0.0-4ubuntu1 "}
